target datalayout = "e-m:e-p270:32:32-p271:32:32-p272:64:64-i64:64-i128:128-f80:128-n8:16:32:64-S128"
target triple = "x86_64-pc-linux-gnu"

@stderr = external global ptr, align 8
@.str.12 = private unnamed_addr constant [52 x i8] c"libunwind: _Unwind_SetIP(context=%p, value=0x%0lx)\0A\00", align 1

; Function Attrs: uwtable
define dso_local void @_Unwind_SetIP(ptr noundef %0, i64 noundef %1) #0 {
  %3 = alloca ptr, align 8
  %4 = alloca i64, align 8
  %5 = alloca ptr, align 8
  store ptr %0, ptr %3, align 8, !tbaa !31
  store i64 %1, ptr %4, align 8, !tbaa !25
  br label %6

6:                                                ; preds = %2
  %7 = call zeroext i1 @logAPIs()
  br i1 %7, label %8, label %17

8:                                                ; preds = %6
  br label %9

9:                                                ; preds = %8
  %10 = load ptr, ptr @stderr, align 8, !tbaa !9
  %11 = load ptr, ptr %3, align 8, !tbaa !31
  %12 = load i64, ptr %4, align 8, !tbaa !25
  %13 = call i32 (ptr, ptr, ...) @fprintf(ptr noundef %10, ptr noundef @.str.12, ptr noundef %11, i64 noundef %12) #5
  %14 = load ptr, ptr @stderr, align 8, !tbaa !9
  %15 = call i32 @fflush(ptr noundef %14)
  br label %16

16:                                               ; preds = %9
  br label %17

17:                                               ; preds = %16, %6
  br label %18

18:                                               ; preds = %17
  call void @llvm.lifetime.start.p0(i64 8, ptr %5) #5
  %19 = load ptr, ptr %3, align 8, !tbaa !31
  store ptr %19, ptr %5, align 8, !tbaa !19
  %20 = load ptr, ptr %5, align 8, !tbaa !19
  %21 = load i64, ptr %4, align 8, !tbaa !25
  %22 = call i32 @__unw_set_reg(ptr noundef %20, i32 noundef -1, i64 noundef %21)
  call void @llvm.lifetime.end.p0(i64 8, ptr %5) #5
  ret void
}