; Function Attrs: uwtable
define dso_local void @_Unwind_SetIP(ptr noundef %0, i64 noundef %1) local_unnamed_addr #0 {
  %3 = tail call zeroext i1 @logAPIs()
  br i1 %3, label %4, label %9

4:                                                ; preds = %2
  %5 = load ptr, ptr @stderr, align 8, !tbaa !4
  %6 = tail call i32 (ptr, ptr, ...) @fprintf(ptr noundef %5, ptr noundef nonnull @.str.12, ptr noundef %0, i64 noundef %1) #7
  %7 = load ptr, ptr @stderr, align 8, !tbaa !4
  %8 = tail call i32 @fflush(ptr noundef %7)
  br label %9

9:                                                ; preds = %2, %4
  %10 = tail call i32 @__unw_set_reg(ptr noundef %0, i32 noundef -1, i64 noundef %1)
  ret void
}